target datalayout = "e-m:e-p270:32:32-p271:32:32-p272:64:64-i64:64-i128:128-f80:128-n8:16:32:64-S128"
target triple = "x86_64-pc-linux-gnu"

%struct.ident_t = type { i32, i32, i32, i32, ptr }
%"struct.faiss::AutoTuneCriterion" = type { ptr, i64, i64, i64, %"class.std::vector", %"class.std::vector.0" }
%"class.std::vector" = type { %"struct.std::_Vector_base" }
%"struct.std::_Vector_base" = type { %"struct.std::_Vector_base<float, std::allocator<float>>::_Vector_impl" }
%"struct.std::_Vector_base<float, std::allocator<float>>::_Vector_impl" = type { %"struct.std::_Vector_base<float, std::allocator<float>>::_Vector_impl_data" }
%"struct.std::_Vector_base<float, std::allocator<float>>::_Vector_impl_data" = type { ptr, ptr, ptr }
%"class.std::vector.0" = type { %"struct.std::_Vector_base.1" }
%"struct.std::_Vector_base.1" = type { %"struct.std::_Vector_base<long, std::allocator<long>>::_Vector_impl" }
%"struct.std::_Vector_base<long, std::allocator<long>>::_Vector_impl" = type { %"struct.std::_Vector_base<long, std::allocator<long>>::_Vector_impl_data" }
%"struct.std::_Vector_base<long, std::allocator<long>>::_Vector_impl_data" = type { ptr, ptr, ptr }
%"struct.faiss::ParameterSpace" = type { ptr, %"class.std::vector.14", i32, i32, i64, i8, double }
%"class.std::vector.14" = type { %"struct.std::_Vector_base.15" }
%"struct.std::_Vector_base.15" = type { %"struct.std::_Vector_base<faiss::ParameterRange, std::allocator<faiss::ParameterRange>>::_Vector_impl" }
%"struct.std::_Vector_base<faiss::ParameterRange, std::allocator<faiss::ParameterRange>>::_Vector_impl" = type { %"struct.std::_Vector_base<faiss::ParameterRange, std::allocator<faiss::ParameterRange>>::_Vector_impl_data" }
%"struct.std::_Vector_base<faiss::ParameterRange, std::allocator<faiss::ParameterRange>>::_Vector_impl_data" = type { ptr, ptr, ptr }
%"struct.faiss::Index" = type <{ ptr, i32, [4 x i8], i64, i8, i8, [2 x i8], i32, float, [4 x i8] }>

@1 = private unnamed_addr constant %struct.ident_t { i32 0, i32 514, i32 0, i32 22, ptr @0 }, align 8

; Function Attrs: mustprogress nounwind uwtable
define linkonce_odr noundef ptr @_ZNKSt6vectorIlSaIlEE11_M_data_ptrIlEEPT_S4_(ptr noundef nonnull align 8 dereferenceable(24) %0, ptr noundef %1) #1 comdat align 2 {
  %3 = alloca ptr, align 8
  %4 = alloca ptr, align 8
  store ptr %0, ptr %3, align 8
  store ptr %1, ptr %4, align 8
  %5 = load ptr, ptr %4, align 8
  ret ptr %5
}

; Function Attrs: mustprogress nounwind uwtable
define linkonce_odr noundef ptr @_ZNKSt6vectorIfSaIfEE11_M_data_ptrIfEEPT_S4_(ptr noundef nonnull align 8 dereferenceable(24) %0, ptr noundef %1) #1 comdat align 2 {
  %3 = alloca ptr, align 8
  %4 = alloca ptr, align 8
  store ptr %0, ptr %3, align 8
  store ptr %1, ptr %4, align 8
  %5 = load ptr, ptr %4, align 8
  ret ptr %5
}

; Function Attrs: mustprogress nounwind uwtable
define linkonce_odr noundef ptr @_ZNSt6vectorIlSaIlEE4dataEv(ptr noundef nonnull align 8 dereferenceable(24) %0) #1 comdat align 2 {
  %2 = alloca ptr, align 8
  store ptr %0, ptr %2, align 8
  %3 = load ptr, ptr %2, align 8
  %4 = getelementptr inbounds %"struct.std::_Vector_base.1", ptr %3, i32 0, i32 0
  %5 = getelementptr inbounds %"struct.std::_Vector_base<long, std::allocator<long>>::_Vector_impl_data", ptr %4, i32 0, i32 0
  %6 = load ptr, ptr %5, align 8
  %7 = call noundef ptr @_ZNKSt6vectorIlSaIlEE11_M_data_ptrIlEEPT_S4_(ptr noundef nonnull align 8 dereferenceable(24) %3, ptr noundef %6) #5
  ret ptr %7
}

; Function Attrs: mustprogress nounwind uwtable
define linkonce_odr noundef ptr @_ZNSt6vectorIfSaIfEE4dataEv(ptr noundef nonnull align 8 dereferenceable(24) %0) #1 comdat align 2 {
  %2 = alloca ptr, align 8
  store ptr %0, ptr %2, align 8
  %3 = load ptr, ptr %2, align 8
  %4 = getelementptr inbounds %"struct.std::_Vector_base", ptr %3, i32 0, i32 0
  %5 = getelementptr inbounds %"struct.std::_Vector_base<float, std::allocator<float>>::_Vector_impl_data", ptr %4, i32 0, i32 0
  %6 = load ptr, ptr %5, align 8
  %7 = call noundef ptr @_ZNKSt6vectorIfSaIfEE11_M_data_ptrIfEEPT_S4_(ptr noundef nonnull align 8 dereferenceable(24) %3, ptr noundef %6) #5
  ret ptr %7
}

; Function Attrs: norecurse nounwind uwtable
define internal void @_ZNK5faiss14ParameterSpace7exploreEPNS_5IndexEmPKfRKNS_17AutoTuneCriterionEPNS_15OperatingPointsE.omp_outlined(ptr noalias noundef %0, ptr noalias noundef %1, ptr noundef %2, ptr noundef nonnull align 8 dereferenceable(8) %3, ptr noundef nonnull align 8 dereferenceable(8) %4, ptr noundef nonnull align 8 dereferenceable(8) %5, ptr noundef nonnull align 8 dereferenceable(80) %6, ptr noundef nonnull align 8 dereferenceable(24) %7, ptr noundef nonnull align 8 dereferenceable(24) %8) #12 personality ptr @__gxx_personality_v0 {
  %10 = alloca ptr, align 8
  %11 = alloca ptr, align 8
  %12 = alloca ptr, align 8
  %13 = alloca ptr, align 8
  %14 = alloca ptr, align 8
  %15 = alloca ptr, align 8
  %16 = alloca ptr, align 8
  %17 = alloca ptr, align 8
  %18 = alloca ptr, align 8
  %19 = alloca ptr, align 8
  %20 = alloca i64, align 8
  %21 = alloca i64, align 8
  %22 = alloca i64, align 8
  %23 = alloca i64, align 8
  %24 = alloca i64, align 8
  %25 = alloca i64, align 8
  %26 = alloca i64, align 8
  %27 = alloca i64, align 8
  %28 = alloca i32, align 4
  %29 = alloca i64, align 8
  %30 = alloca i64, align 8
  store ptr %0, ptr %10, align 8
  store ptr %1, ptr %11, align 8
  store ptr %2, ptr %12, align 8
  store ptr %3, ptr %13, align 8
  store ptr %4, ptr %14, align 8
  store ptr %5, ptr %15, align 8
  store ptr %6, ptr %16, align 8
  store ptr %7, ptr %17, align 8
  store ptr %8, ptr %18, align 8
  %31 = load ptr, ptr %12, align 8
  %32 = load ptr, ptr %13, align 8
  %33 = load ptr, ptr %14, align 8
  %34 = load ptr, ptr %15, align 8
  %35 = load ptr, ptr %16, align 8
  %36 = load ptr, ptr %17, align 8
  %37 = load ptr, ptr %18, align 8
  store ptr %35, ptr %19, align 8
  %38 = load i64, ptr %32, align 8
  store i64 %38, ptr %21, align 8
  %39 = getelementptr inbounds %"struct.faiss::ParameterSpace", ptr %31, i32 0, i32 4
  %40 = load i64, ptr %39, align 8
  store i64 %40, ptr %22, align 8
  %41 = load i64, ptr %21, align 8
  %42 = load i64, ptr %22, align 8
  %43 = sub i64 0, %42
  %44 = add i64 %43, 1
  %45 = sub i64 %41, %44
  %46 = load i64, ptr %22, align 8
  %47 = udiv i64 %45, %46
  %48 = sub i64 %47, 1
  store i64 %48, ptr %23, align 8
  store i64 0, ptr %24, align 8
  %49 = load i64, ptr %21, align 8
  %50 = icmp ult i64 0, %49
  br i1 %50, label %51, label %126

51:                                               ; preds = %9
  store i64 0, ptr %25, align 8
  %52 = load i64, ptr %23, align 8
  store i64 %52, ptr %26, align 8
  store i64 1, ptr %27, align 8
  store i32 0, ptr %28, align 4
  %53 = load ptr, ptr %10, align 8
  %54 = load i32, ptr %53, align 4
  call void @__kmpc_for_static_init_8u(ptr @1, i32 %54, i32 34, ptr %28, ptr %25, ptr %26, ptr %27, i64 1, i64 1)
  %55 = load i64, ptr %26, align 8
  %56 = load i64, ptr %23, align 8
  %57 = icmp ugt i64 %55, %56
  br i1 %57, label %58, label %60

58:                                               ; preds = %51
  %59 = load i64, ptr %23, align 8
  br label %62

60:                                               ; preds = %51
  %61 = load i64, ptr %26, align 8
  br label %62

62:                                               ; preds = %60, %58
  %63 = phi i64 [ %59, %58 ], [ %61, %60 ]
  store i64 %63, ptr %26, align 8
  %64 = load i64, ptr %25, align 8
  store i64 %64, ptr %20, align 8
  br label %65

65:                                               ; preds = %119, %62
  %66 = load i64, ptr %20, align 8
  %67 = load i64, ptr %26, align 8
  %68 = add i64 %67, 1
  %69 = icmp ult i64 %66, %68
  br i1 %69, label %70, label %122

70:                                               ; preds = %65
  %71 = load i64, ptr %20, align 8
  %72 = load i64, ptr %22, align 8
  %73 = mul i64 %71, %72
  %74 = add i64 0, %73
  store i64 %74, ptr %29, align 8
  %75 = load i64, ptr %29, align 8
  %76 = getelementptr inbounds %"struct.faiss::ParameterSpace", ptr %31, i32 0, i32 4
  %77 = load i64, ptr %76, align 8
  %78 = add i64 %75, %77
  store i64 %78, ptr %30, align 8
  %79 = load i64, ptr %30, align 8
  %80 = load i64, ptr %32, align 8
  %81 = icmp ugt i64 %79, %80
  br i1 %81, label %82, label %84

82:                                               ; preds = %70
  %83 = load i64, ptr %32, align 8
  store i64 %83, ptr %30, align 8
  br label %84

84:                                               ; preds = %82, %70
  %85 = load ptr, ptr %33, align 8
  %86 = load i64, ptr %30, align 8
  %87 = load i64, ptr %29, align 8
  %88 = sub i64 %86, %87
  %89 = load ptr, ptr %34, align 8
  %90 = load i64, ptr %29, align 8
  %91 = load ptr, ptr %33, align 8
  %92 = getelementptr inbounds %"struct.faiss::Index", ptr %91, i32 0, i32 1
  %93 = load i32, ptr %92, align 8
  %94 = sext i32 %93 to i64
  %95 = mul nsw i64 %90, %94
  %96 = getelementptr inbounds float, ptr %89, i64 %95
  %97 = load ptr, ptr %19, align 8
  %98 = getelementptr inbounds %"struct.faiss::AutoTuneCriterion", ptr %97, i32 0, i32 2
  %99 = load i64, ptr %98, align 8
  %100 = call noundef ptr @_ZNSt6vectorIfSaIfEE4dataEv(ptr noundef nonnull align 8 dereferenceable(24) %36) #5
  %101 = load i64, ptr %29, align 8
  %102 = load ptr, ptr %19, align 8
  %103 = getelementptr inbounds %"struct.faiss::AutoTuneCriterion", ptr %102, i32 0, i32 2
  %104 = load i64, ptr %103, align 8
  %105 = mul nsw i64 %101, %104
  %106 = getelementptr inbounds float, ptr %100, i64 %105
  %107 = call noundef ptr @_ZNSt6vectorIlSaIlEE4dataEv(ptr noundef nonnull align 8 dereferenceable(24) %37) #5
  %108 = load i64, ptr %29, align 8
  %109 = load ptr, ptr %19, align 8
  %110 = getelementptr inbounds %"struct.faiss::AutoTuneCriterion", ptr %109, i32 0, i32 2
  %111 = load i64, ptr %110, align 8
  %112 = mul nsw i64 %108, %111
  %113 = getelementptr inbounds i64, ptr %107, i64 %112
  %114 = load ptr, ptr %85, align 8
  %115 = getelementptr inbounds ptr, ptr %114, i64 5
  %116 = load ptr, ptr %115, align 8
  invoke void %116(ptr noundef nonnull align 8 dereferenceable(36) %85, i64 noundef %88, ptr noundef %96, i64 noundef %99, ptr noundef %106, ptr noundef %113, ptr noundef null)
          to label %117 unwind label %127

117:                                              ; preds = %84
  br label %118

118:                                              ; preds = %117
  br label %119

119:                                              ; preds = %118
  %120 = load i64, ptr %20, align 8
  %121 = add i64 %120, 1
  store i64 %121, ptr %20, align 8
  br label %65

122:                                              ; preds = %65
  br label %123

123:                                              ; preds = %122
  %124 = load ptr, ptr %10, align 8
  %125 = load i32, ptr %124, align 4
  call void @__kmpc_for_static_fini(ptr @1, i32 %125)
  br label %126

126:                                              ; preds = %123, %9
  ret void

127:                                              ; preds = %84
  %128 = landingpad { ptr, i32 }
          catch ptr null
  %129 = extractvalue { ptr, i32 } %128, 0
  call void @__clang_call_terminate(ptr %129) #21
  unreachable
}