; Function Attrs: norecurse nounwind uwtable
define internal void @_ZNK5faiss14ParameterSpace7exploreEPNS_5IndexEmPKfRKNS_17AutoTuneCriterionEPNS_15OperatingPointsE.omp_outlined(ptr noalias nocapture noundef readonly %0, ptr noalias nocapture readnone %1, ptr nocapture noundef readonly %2, ptr nocapture noundef nonnull readonly align 8 dereferenceable(8) %3, ptr nocapture noundef nonnull readonly align 8 dereferenceable(8) %4, ptr nocapture noundef nonnull readonly align 8 dereferenceable(8) %5, ptr nocapture noundef nonnull readonly align 8 dereferenceable(80) %6, ptr nocapture noundef nonnull readonly align 8 dereferenceable(24) %7, ptr nocapture noundef nonnull readonly align 8 dereferenceable(24) %8) #13 personality ptr @__gxx_personality_v0 {
  %10 = alloca i64, align 8
  %11 = alloca i64, align 8
  %12 = alloca i64, align 8
  %13 = alloca i32, align 4
  %14 = load i64, ptr %3, align 8
  %15 = getelementptr inbounds i8, ptr %2, i64 40
  %16 = load i64, ptr %15, align 8
  %.not = icmp eq i64 %14, 0
  br i1 %.not, label %55, label %17

17:                                               ; preds = %9
  %.neg = add i64 %14, -1
  %18 = add i64 %.neg, %16
  %19 = udiv i64 %18, %16
  %20 = add i64 %19, -1
  store i64 0, ptr %10, align 8
  store i64 %20, ptr %11, align 8
  store i64 1, ptr %12, align 8
  store i32 0, ptr %13, align 4
  %21 = load i32, ptr %0, align 4
  call void @__kmpc_for_static_init_8u(ptr nonnull @1, i32 %21, i32 34, ptr nonnull %13, ptr nonnull %10, ptr nonnull %11, ptr nonnull %12, i64 1, i64 1)
  %22 = load i64, ptr %11, align 8
  %23 = call i64 @llvm.umin.i64(i64 %22, i64 %20)
  store i64 %23, ptr %11, align 8
  %24 = load i64, ptr %10, align 8
  %25 = add i64 %23, 1
  %26 = icmp ult i64 %24, %25
  br i1 %26, label %.lr.ph, label %._crit_edge

.lr.ph:                                           ; preds = %17
  %27 = getelementptr inbounds i8, ptr %6, i64 16
  br label %28

28:                                               ; preds = %.lr.ph, %50
  %.02932 = phi i64 [ %24, %.lr.ph ], [ %51, %50 ]
  %29 = mul i64 %.02932, %16
  %30 = load i64, ptr %15, align 8
  %31 = add i64 %30, %29
  %32 = load i64, ptr %3, align 8
  %spec.select = call i64 @llvm.umin.i64(i64 %31, i64 %32)
  %33 = load ptr, ptr %4, align 8
  %34 = sub i64 %spec.select, %29
  %35 = load ptr, ptr %5, align 8
  %36 = getelementptr inbounds i8, ptr %33, i64 8
  %37 = load i32, ptr %36, align 8
  %38 = sext i32 %37 to i64
  %39 = mul nsw i64 %29, %38
  %40 = getelementptr inbounds float, ptr %35, i64 %39
  %41 = load i64, ptr %27, align 8
  %42 = load ptr, ptr %7, align 8
  %43 = mul nsw i64 %41, %29
  %44 = getelementptr inbounds float, ptr %42, i64 %43
  %45 = load ptr, ptr %8, align 8
  %46 = getelementptr inbounds i64, ptr %45, i64 %43
  %47 = load ptr, ptr %33, align 8
  %48 = getelementptr inbounds i8, ptr %47, i64 40
  %49 = load ptr, ptr %48, align 8
  invoke void %49(ptr noundef nonnull align 8 dereferenceable(36) %33, i64 noundef %34, ptr noundef %40, i64 noundef %41, ptr noundef %44, ptr noundef %46, ptr noundef null)
          to label %50 unwind label %56

50:                                               ; preds = %28
  %51 = add nuw i64 %.02932, 1
  %52 = load i64, ptr %11, align 8
  %53 = add i64 %52, 1
  %54 = icmp ult i64 %51, %53
  br i1 %54, label %28, label %._crit_edge

._crit_edge:                                      ; preds = %50, %17
  call void @__kmpc_for_static_fini(ptr nonnull @1, i32 %21)
  br label %55

55:                                               ; preds = %._crit_edge, %9
  ret void

56:                                               ; preds = %28
  %57 = landingpad { ptr, i32 }
          catch ptr null
  %58 = extractvalue { ptr, i32 } %57, 0
  call void @__clang_call_terminate(ptr %58) #33
  unreachable
}